target datalayout = "e-m:e-p270:32:32-p271:32:32-p272:64:64-i64:64-i128:128-f80:128-n8:16:32:64-S128"
target triple = "x86_64-unknown-linux-gnu"

%"class.llvh::SMRange" = type { %"class.llvh::SMLoc", %"class.llvh::SMLoc" }
%"class.llvh::SMLoc" = type { ptr }
%"class.std::initializer_list" = type { ptr, i64 }
%"class.llvh::MemoryBuffer" = type { ptr, ptr, ptr }

; Function Attrs: mustprogress nounwind uwtable
define linkonce_odr noundef i64 @_ZNKSt16initializer_listIlE4sizeEv(ptr noundef nonnull align 8 dereferenceable(16) %this) #0 comdat align 2 {
entry:
  %this.addr = alloca ptr, align 8
  store ptr %this, ptr %this.addr, align 8
  %this1 = load ptr, ptr %this.addr, align 8
  %_M_len = getelementptr inbounds %"class.std::initializer_list", ptr %this1, i32 0, i32 1
  %0 = load i64, ptr %_M_len, align 8
  ret i64 %0
}

; Function Attrs: mustprogress nounwind uwtable
define linkonce_odr noundef ptr @_ZNKSt16initializer_listIlE3endEv(ptr noundef nonnull align 8 dereferenceable(16) %this) #0 comdat align 2 {
entry:
  %this.addr = alloca ptr, align 8
  store ptr %this, ptr %this.addr, align 8
  %this1 = load ptr, ptr %this.addr, align 8
  %call = call noundef ptr @_ZNKSt16initializer_listIlE5beginEv(ptr noundef nonnull align 8 dereferenceable(16) %this1) #7
  %call2 = call noundef i64 @_ZNKSt16initializer_listIlE4sizeEv(ptr noundef nonnull align 8 dereferenceable(16) %this1) #7
  %add.ptr = getelementptr inbounds i64, ptr %call, i64 %call2
  ret ptr %add.ptr
}

; Function Attrs: mustprogress nounwind uwtable
define linkonce_odr noundef ptr @_ZNKSt16initializer_listIlE5beginEv(ptr noundef nonnull align 8 dereferenceable(16) %this) #0 comdat align 2 {
entry:
  %this.addr = alloca ptr, align 8
  store ptr %this, ptr %this.addr, align 8
  %this1 = load ptr, ptr %this.addr, align 8
  %_M_array = getelementptr inbounds %"class.std::initializer_list", ptr %this1, i32 0, i32 0
  %0 = load ptr, ptr %_M_array, align 8
  ret ptr %0
}

; Function Attrs: mustprogress nounwind uwtable
define linkonce_odr hidden void @_ZN6hermes11JSONEmitter10emitValuesIlEEvSt16initializer_listIT_E(ptr noundef nonnull align 8 dereferenceable(72) %this, ptr %vals.coerce0, i64 %vals.coerce1) #0 comdat align 2 {
entry:
  %vals = alloca %"class.std::initializer_list", align 8
  %this.addr = alloca ptr, align 8
  %__range2 = alloca ptr, align 8
  %__begin0 = alloca ptr, align 8
  %__end0 = alloca ptr, align 8
  %val = alloca ptr, align 8
  %0 = getelementptr inbounds { ptr, i64 }, ptr %vals, i32 0, i32 0
  store ptr %vals.coerce0, ptr %0, align 8
  %1 = getelementptr inbounds { ptr, i64 }, ptr %vals, i32 0, i32 1
  store i64 %vals.coerce1, ptr %1, align 8
  store ptr %this, ptr %this.addr, align 8
  %this1 = load ptr, ptr %this.addr, align 8
  store ptr %vals, ptr %__range2, align 8
  %2 = load ptr, ptr %__range2, align 8
  %call = call noundef ptr @_ZNKSt16initializer_listIlE5beginEv(ptr noundef nonnull align 8 dereferenceable(16) %2) #7
  store ptr %call, ptr %__begin0, align 8
  %3 = load ptr, ptr %__range2, align 8
  %call2 = call noundef ptr @_ZNKSt16initializer_listIlE3endEv(ptr noundef nonnull align 8 dereferenceable(16) %3) #7
  store ptr %call2, ptr %__end0, align 8
  br label %for.cond

for.cond:                                         ; preds = %for.inc, %entry
  %4 = load ptr, ptr %__begin0, align 8
  %5 = load ptr, ptr %__end0, align 8
  %cmp = icmp ne ptr %4, %5
  br i1 %cmp, label %for.body, label %for.end

for.body:                                         ; preds = %for.cond
  %6 = load ptr, ptr %__begin0, align 8
  store ptr %6, ptr %val, align 8
  %7 = load ptr, ptr %val, align 8
  %8 = load i64, ptr %7, align 8
  call void @_ZN6hermes11JSONEmitter9emitValueEl(ptr noundef nonnull align 8 dereferenceable(72) %this1, i64 noundef %8)
  br label %for.inc

for.inc:                                          ; preds = %for.body
  %9 = load ptr, ptr %__begin0, align 8
  %incdec.ptr = getelementptr inbounds i64, ptr %9, i32 1
  store ptr %incdec.ptr, ptr %__begin0, align 8
  br label %for.cond

for.end:                                          ; preds = %for.cond
  ret void
}

; Function Attrs: mustprogress nounwind uwtable
define linkonce_odr hidden noundef ptr @_ZNK4llvh5SMLoc10getPointerEv(ptr noundef nonnull align 8 dereferenceable(8) %this) #0 comdat align 2 {
entry:
  %this.addr = alloca ptr, align 8
  store ptr %this, ptr %this.addr, align 8
  %this1 = load ptr, ptr %this.addr, align 8
  %Ptr = getelementptr inbounds %"class.llvh::SMLoc", ptr %this1, i32 0, i32 0
  %0 = load ptr, ptr %Ptr, align 8
  ret ptr %0
}

; Function Attrs: mustprogress nounwind uwtable
define linkonce_odr hidden noundef ptr @_ZNK4llvh12MemoryBuffer14getBufferStartEv(ptr noundef nonnull align 8 dereferenceable(24) %this) #0 comdat align 2 {
entry:
  %this.addr = alloca ptr, align 8
  store ptr %this, ptr %this.addr, align 8
  %this1 = load ptr, ptr %this.addr, align 8
  %BufferStart = getelementptr inbounds %"class.llvh::MemoryBuffer", ptr %this1, i32 0, i32 1
  %0 = load ptr, ptr %BufferStart, align 8
  ret ptr %0
}

; Function Attrs: mustprogress nounwind uwtable
define hidden void @_ZN6hermes15dumpSMRangeJSONERNS_11JSONEmitterEN4llvh7SMRangeEPKNS2_12MemoryBufferE(ptr noundef nonnull align 8 dereferenceable(72) %json, ptr %rng.coerce0, ptr %rng.coerce1, ptr noundef %buffer) #0 {
entry:
  %rng = alloca %"class.llvh::SMRange", align 8
  %json.addr = alloca ptr, align 8
  %buffer.addr = alloca ptr, align 8
  %bufStart = alloca ptr, align 8
  %agg.tmp = alloca %"class.std::initializer_list", align 8
  %ref.tmp = alloca [2 x i64], align 8
  %0 = getelementptr inbounds { ptr, ptr }, ptr %rng, i32 0, i32 0
  store ptr %rng.coerce0, ptr %0, align 8
  %1 = getelementptr inbounds { ptr, ptr }, ptr %rng, i32 0, i32 1
  store ptr %rng.coerce1, ptr %1, align 8
  store ptr %json, ptr %json.addr, align 8
  store ptr %buffer, ptr %buffer.addr, align 8
  %2 = load ptr, ptr %buffer.addr, align 8
  %call = call noundef ptr @_ZNK4llvh12MemoryBuffer14getBufferStartEv(ptr noundef nonnull align 8 dereferenceable(24) %2)
  store ptr %call, ptr %bufStart, align 8
  %3 = load ptr, ptr %json.addr, align 8
  %arrayinit.begin = getelementptr inbounds [2 x i64], ptr %ref.tmp, i64 0, i64 0
  %Start = getelementptr inbounds %"class.llvh::SMRange", ptr %rng, i32 0, i32 0
  %call1 = call noundef ptr @_ZNK4llvh5SMLoc10getPointerEv(ptr noundef nonnull align 8 dereferenceable(8) %Start)
  %4 = load ptr, ptr %bufStart, align 8
  %sub.ptr.lhs.cast = ptrtoint ptr %call1 to i64
  %sub.ptr.rhs.cast = ptrtoint ptr %4 to i64
  %sub.ptr.sub = sub i64 %sub.ptr.lhs.cast, %sub.ptr.rhs.cast
  store i64 %sub.ptr.sub, ptr %arrayinit.begin, align 8
  %arrayinit.element = getelementptr inbounds i64, ptr %arrayinit.begin, i64 1
  %End = getelementptr inbounds %"class.llvh::SMRange", ptr %rng, i32 0, i32 1
  %call2 = call noundef ptr @_ZNK4llvh5SMLoc10getPointerEv(ptr noundef nonnull align 8 dereferenceable(8) %End)
  %5 = load ptr, ptr %bufStart, align 8
  %sub.ptr.lhs.cast3 = ptrtoint ptr %call2 to i64
  %sub.ptr.rhs.cast4 = ptrtoint ptr %5 to i64
  %sub.ptr.sub5 = sub i64 %sub.ptr.lhs.cast3, %sub.ptr.rhs.cast4
  store i64 %sub.ptr.sub5, ptr %arrayinit.element, align 8
  %_M_array = getelementptr inbounds %"class.std::initializer_list", ptr %agg.tmp, i32 0, i32 0
  %arraystart = getelementptr inbounds [2 x i64], ptr %ref.tmp, i64 0, i64 0
  store ptr %arraystart, ptr %_M_array, align 8
  %_M_len = getelementptr inbounds %"class.std::initializer_list", ptr %agg.tmp, i32 0, i32 1
  store i64 2, ptr %_M_len, align 8
  %6 = getelementptr inbounds { ptr, i64 }, ptr %agg.tmp, i32 0, i32 0
  %7 = load ptr, ptr %6, align 8
  %8 = getelementptr inbounds { ptr, i64 }, ptr %agg.tmp, i32 0, i32 1
  %9 = load i64, ptr %8, align 8
  call void @_ZN6hermes11JSONEmitter10emitValuesIlEEvSt16initializer_listIT_E(ptr noundef nonnull align 8 dereferenceable(72) %3, ptr %7, i64 %9)
  ret void
}