; Function Attrs: mustprogress nounwind uwtable
define hidden void @_ZN6hermes15dumpSMRangeJSONERNS_11JSONEmitterEN4llvh7SMRangeEPKNS2_12MemoryBufferE(ptr noundef nonnull align 8 dereferenceable(72) %json, ptr %rng.coerce0, ptr %rng.coerce1, ptr noundef readonly captures(none) %buffer) local_unnamed_addr #0 {
entry:
  %ref.tmp = alloca [2 x i64], align 8
  %BufferStart.i = getelementptr inbounds nuw i8, ptr %buffer, i64 8
  %0 = load ptr, ptr %BufferStart.i, align 8
  %sub.ptr.lhs.cast = ptrtoint ptr %rng.coerce0 to i64
  %sub.ptr.rhs.cast = ptrtoint ptr %0 to i64
  %sub.ptr.sub = sub i64 %sub.ptr.lhs.cast, %sub.ptr.rhs.cast
  store i64 %sub.ptr.sub, ptr %ref.tmp, align 8
  %arrayinit.element = getelementptr inbounds nuw i8, ptr %ref.tmp, i64 8
  %sub.ptr.lhs.cast3 = ptrtoint ptr %rng.coerce1 to i64
  %sub.ptr.sub5 = sub i64 %sub.ptr.lhs.cast3, %sub.ptr.rhs.cast
  store i64 %sub.ptr.sub5, ptr %arrayinit.element, align 8
  br label %for.body.i

for.body.i:                                       ; preds = %for.body.i, %entry
  %__begin0.06.i.idx = phi i64 [ %__begin0.06.i.add, %for.body.i ], [ 0, %entry ]
  %__begin0.06.i.ptr = getelementptr inbounds nuw i8, ptr %ref.tmp, i64 %__begin0.06.i.idx
  %1 = load i64, ptr %__begin0.06.i.ptr, align 8
  tail call void @_ZN6hermes11JSONEmitter9emitValueEl(ptr noundef nonnull align 8 dereferenceable(72) %json, i64 noundef %1) #7
  %__begin0.06.i.add = add nuw nsw i64 %__begin0.06.i.idx, 8
  %cmp.not.i = icmp eq i64 %__begin0.06.i.add, 16
  br i1 %cmp.not.i, label %_ZN6hermes11JSONEmitter10emitValuesIlEEvSt16initializer_listIT_E.exit, label %for.body.i

_ZN6hermes11JSONEmitter10emitValuesIlEEvSt16initializer_listIT_E.exit: ; preds = %for.body.i
  ret void
}